; Function Attrs: nounwind uwtable
define zeroext range(i8 0, 2) i8 @l_Lean_Elab_FixedParamPerm_isFixed(ptr noundef readonly captures(none) %0, ptr noundef %1) local_unnamed_addr #1 {
  %3 = getelementptr i8, ptr %0, i64 8
  %.val = load i64, ptr %3, align 8, !tbaa !12
  %4 = shl i64 %.val, 1
  %5 = or disjoint i64 %4, 1
  %6 = inttoptr i64 %5 to ptr
  %7 = ptrtoint ptr %1 to i64
  %8 = and i64 %7, 1
  %.not = icmp eq i64 %8, 0
  br i1 %.not, label %lean_dec.exit12, label %9, !prof !14

9:                                                ; preds = %2
  %10 = icmp ult ptr %1, %6
  br i1 %10, label %12, label %lean_dec.exit

lean_dec.exit12:                                  ; preds = %2
  %11 = tail call zeroext i1 @lean_nat_big_lt(ptr noundef %1, ptr noundef nonnull %6) #5
  br i1 %11, label %12, label %lean_dec.exit

12:                                               ; preds = %9, %lean_dec.exit12
  %13 = lshr i64 %7, 1
  %14 = getelementptr inbounds nuw i8, ptr %0, i64 24
  %15 = getelementptr inbounds nuw [0 x ptr], ptr %14, i64 0, i64 %13
  %16 = load ptr, ptr %15, align 8, !tbaa !9
  %17 = ptrtoint ptr %16 to i64
  %18 = and i64 %17, 1
  %.not.i.i = icmp eq i64 %18, 0
  br i1 %.not.i.i, label %19, label %lean_obj_tag.exit

19:                                               ; preds = %12
  %.val.i.i.i = load i32, ptr %16, align 4, !tbaa !4
  %20 = icmp sgt i32 %.val.i.i.i, 0
  br i1 %20, label %21, label %23, !prof !11

21:                                               ; preds = %19
  %22 = add nuw i32 %.val.i.i.i, 1
  store i32 %22, ptr %16, align 4, !tbaa !4
  br label %lean_obj_tag.exit.thread

23:                                               ; preds = %19
  %.not.i.i.i = icmp eq i32 %.val.i.i.i, 0
  br i1 %.not.i.i.i, label %lean_obj_tag.exit.thread, label %24

24:                                               ; preds = %23
  tail call void @lean_inc_ref_cold(ptr noundef nonnull %16) #5
  br label %lean_obj_tag.exit.thread

lean_obj_tag.exit:                                ; preds = %12
  %25 = and i64 %17, 8589934590
  %26 = icmp ne i64 %25, 0
  %spec.select = zext i1 %26 to i8
  br label %lean_dec.exit

lean_obj_tag.exit.thread:                         ; preds = %24, %23, %21
  %27 = getelementptr i8, ptr %16, i64 4
  %.val.i = load i32, ptr %27, align 4
  %28 = icmp ult i32 %.val.i, 16777216
  br i1 %28, label %lean_dec.exit, label %.thread

.thread:                                          ; preds = %lean_obj_tag.exit.thread
  %29 = load i32, ptr %16, align 4, !tbaa !4
  %30 = icmp sgt i32 %29, 1
  br i1 %30, label %31, label %33, !prof !11

31:                                               ; preds = %.thread
  %32 = add nsw i32 %29, -1
  store i32 %32, ptr %16, align 4, !tbaa !4
  br label %lean_dec.exit

33:                                               ; preds = %.thread
  %.not.i13 = icmp eq i32 %29, 0
  br i1 %.not.i13, label %lean_dec.exit, label %34

34:                                               ; preds = %33
  tail call void @lean_dec_ref_cold(ptr noundef nonnull %16) #5
  br label %lean_dec.exit

lean_dec.exit:                                    ; preds = %9, %lean_obj_tag.exit, %31, %33, %34, %lean_obj_tag.exit.thread, %lean_dec.exit12
  %.0 = phi i8 [ 0, %lean_dec.exit12 ], [ 0, %lean_obj_tag.exit.thread ], [ 1, %34 ], [ 1, %33 ], [ 1, %31 ], [ %spec.select, %lean_obj_tag.exit ], [ 0, %9 ]
  ret i8 %.0
}